; Function Attrs: nounwind uwtable
define noalias noundef ptr @Res_ManAlloc(ptr noundef %0) local_unnamed_addr #0 {
  %calloc = tail call dereferenceable_or_null(232) ptr @calloc(i64 1, i64 232)
  store ptr %0, ptr %calloc, align 8
  %2 = tail call ptr (...) @Res_WinAlloc() #12
  %3 = getelementptr inbounds nuw i8, ptr %calloc, i64 8
  store ptr %2, ptr %3, align 8
  %4 = getelementptr inbounds nuw i8, ptr %0, i64 8
  %5 = load i32, ptr %4, align 4
  %6 = tail call ptr @Res_SimAlloc(i32 noundef %5) #12
  %7 = getelementptr inbounds nuw i8, ptr %calloc, i64 24
  store ptr %6, ptr %7, align 8
  %8 = tail call ptr (...) @Int_ManAlloc() #12
  %9 = getelementptr inbounds nuw i8, ptr %calloc, i64 40
  store ptr %8, ptr %9, align 8
  %calloc.i = tail call noalias noundef dereferenceable_or_null(16) ptr @calloc(i64 1, i64 16)
  %10 = getelementptr inbounds nuw i8, ptr %calloc, i64 48
  store ptr %calloc.i, ptr %10, align 8
  %11 = getelementptr inbounds nuw i8, ptr %0, i64 12
  %12 = load i32, ptr %11, align 4
  %13 = tail call noalias dereferenceable_or_null(16) ptr @malloc(i64 noundef 16) #13
  %14 = add i32 %12, -1
  %or.cond.i.i = icmp ult i32 %14, 7
  %spec.store.select.i.i = select i1 %or.cond.i.i, i32 8, i32 %12
  store i32 %spec.store.select.i.i, ptr %13, align 8
  %.not.i.i = icmp eq i32 %spec.store.select.i.i, 0
  br i1 %.not.i.i, label %Vec_VecAlloc.exit.i, label %15

15:                                               ; preds = %1
  %16 = sext i32 %spec.store.select.i.i to i64
  %17 = shl nsw i64 %16, 3
  %18 = tail call noalias ptr @malloc(i64 noundef %17) #13
  br label %Vec_VecAlloc.exit.i

Vec_VecAlloc.exit.i:                              ; preds = %15, %1
  %19 = phi ptr [ %18, %15 ], [ null, %1 ]
  %20 = getelementptr inbounds nuw i8, ptr %13, i64 8
  store ptr %19, ptr %20, align 8
  %21 = icmp sgt i32 %12, 0
  br i1 %21, label %.lr.ph.preheader.i, label %Vec_VecStart.exit

.lr.ph.preheader.i:                               ; preds = %Vec_VecAlloc.exit.i
  %wide.trip.count.i = zext nneg i32 %12 to i64
  br label %.lr.ph.i

.lr.ph.i:                                         ; preds = %.lr.ph.i, %.lr.ph.preheader.i
  %indvars.iv.i = phi i64 [ 0, %.lr.ph.preheader.i ], [ %indvars.iv.next.i, %.lr.ph.i ]
  %calloc.i.i = tail call noalias noundef dereferenceable_or_null(16) ptr @calloc(i64 1, i64 16)
  %22 = getelementptr inbounds nuw ptr, ptr %19, i64 %indvars.iv.i
  store ptr %calloc.i.i, ptr %22, align 8
  %indvars.iv.next.i = add nuw nsw i64 %indvars.iv.i, 1
  %exitcond.not.i = icmp eq i64 %indvars.iv.next.i, %wide.trip.count.i
  br i1 %exitcond.not.i, label %Vec_VecStart.exit, label %.lr.ph.i, !llvm.loop !4

Vec_VecStart.exit:                                ; preds = %.lr.ph.i, %Vec_VecAlloc.exit.i
  %23 = getelementptr inbounds nuw i8, ptr %13, i64 4
  store i32 %12, ptr %23, align 4
  %24 = getelementptr inbounds nuw i8, ptr %calloc, i64 56
  store ptr %13, ptr %24, align 8
  %25 = tail call noalias dereferenceable_or_null(16) ptr @malloc(i64 noundef 16) #13
  store i32 %spec.store.select.i.i, ptr %25, align 8
  br i1 %.not.i.i, label %Vec_VecAlloc.exit.i17, label %26

26:                                               ; preds = %Vec_VecStart.exit
  %27 = sext i32 %spec.store.select.i.i to i64
  %28 = shl nsw i64 %27, 3
  %29 = tail call noalias ptr @malloc(i64 noundef %28) #13
  br label %Vec_VecAlloc.exit.i17

Vec_VecAlloc.exit.i17:                            ; preds = %26, %Vec_VecStart.exit
  %30 = phi ptr [ %29, %26 ], [ null, %Vec_VecStart.exit ]
  %31 = getelementptr inbounds nuw i8, ptr %25, i64 8
  store ptr %30, ptr %31, align 8
  br i1 %21, label %.lr.ph.preheader.i18, label %Vec_VecStart.exit25

.lr.ph.preheader.i18:                             ; preds = %Vec_VecAlloc.exit.i17
  %wide.trip.count.i19 = zext nneg i32 %12 to i64
  br label %.lr.ph.i20

.lr.ph.i20:                                       ; preds = %.lr.ph.i20, %.lr.ph.preheader.i18
  %indvars.iv.i21 = phi i64 [ 0, %.lr.ph.preheader.i18 ], [ %indvars.iv.next.i23, %.lr.ph.i20 ]
  %calloc.i.i22 = tail call noalias noundef dereferenceable_or_null(16) ptr @calloc(i64 1, i64 16)
  %32 = getelementptr inbounds nuw ptr, ptr %30, i64 %indvars.iv.i21
  store ptr %calloc.i.i22, ptr %32, align 8
  %indvars.iv.next.i23 = add nuw nsw i64 %indvars.iv.i21, 1
  %exitcond.not.i24 = icmp eq i64 %indvars.iv.next.i23, %wide.trip.count.i19
  br i1 %exitcond.not.i24, label %Vec_VecStart.exit25, label %.lr.ph.i20, !llvm.loop !4

Vec_VecStart.exit25:                              ; preds = %.lr.ph.i20, %Vec_VecAlloc.exit.i17
  %33 = getelementptr inbounds nuw i8, ptr %25, i64 4
  store i32 %12, ptr %33, align 4
  %34 = getelementptr inbounds nuw i8, ptr %calloc, i64 64
  store ptr %25, ptr %34, align 8
  %35 = tail call noalias dereferenceable_or_null(16) ptr @malloc(i64 noundef 16) #13
  store i32 32, ptr %35, align 8
  %36 = tail call noalias dereferenceable_or_null(256) ptr @malloc(i64 noundef 256) #13
  %37 = getelementptr inbounds nuw i8, ptr %35, i64 8
  store ptr %36, ptr %37, align 8
  br label %.lr.ph.i28

.lr.ph.i28:                                       ; preds = %.lr.ph.i28, %Vec_VecStart.exit25
  %indvars.iv.i29 = phi i64 [ 0, %Vec_VecStart.exit25 ], [ %indvars.iv.next.i31, %.lr.ph.i28 ]
  %calloc.i.i30 = tail call noalias noundef dereferenceable_or_null(16) ptr @calloc(i64 1, i64 16)
  %38 = getelementptr inbounds nuw ptr, ptr %36, i64 %indvars.iv.i29
  store ptr %calloc.i.i30, ptr %38, align 8
  %indvars.iv.next.i31 = add nuw nsw i64 %indvars.iv.i29, 1
  %exitcond.not.i32 = icmp eq i64 %indvars.iv.next.i31, 32
  br i1 %exitcond.not.i32, label %Vec_VecStart.exit33, label %.lr.ph.i28, !llvm.loop !4

Vec_VecStart.exit33:                              ; preds = %.lr.ph.i28
  %39 = getelementptr inbounds nuw i8, ptr %35, i64 4
  store i32 32, ptr %39, align 4
  %40 = getelementptr inbounds nuw i8, ptr %calloc, i64 72
  store ptr %35, ptr %40, align 8
  ret ptr %calloc
}